target datalayout = "e-m:e-p270:32:32-p271:32:32-p272:64:64-i64:64-i128:128-f80:128-n8:16:32:64-S128"
target triple = "x86_64-pc-linux-gnu"

%"class.std::__cxx11::basic_string" = type { %"struct.std::__cxx11::basic_string<char>::_Alloc_hider", i64, %union.anon }
%"struct.std::__cxx11::basic_string<char>::_Alloc_hider" = type { ptr }
%union.anon = type { i64, [8 x i8] }
%class.cmOutputConverter = type <{ ptr, %class.cmStateSnapshot, i8, [7 x i8], %"class.std::__cxx11::basic_string", %"class.std::__cxx11::basic_string", i32, [4 x i8] }>
%class.cmStateSnapshot = type { ptr, %"class.cmLinkedTree<cmStateDetail::SnapshotDataType>::iterator" }
%"class.cmLinkedTree<cmStateDetail::SnapshotDataType>::iterator" = type { ptr, i64 }

; Function Attrs: mustprogress uwtable
define internal noundef zeroext i1 @_ZN12_GLOBAL__N_114PathEqOrSubDirERKNSt7__cxx1112basic_stringIcSt11char_traitsIcESaIcEEES7_(ptr noundef nonnull align 8 dereferenceable(32) %0, ptr noundef nonnull align 8 dereferenceable(32) %1) #4 {
  %3 = alloca ptr, align 8
  %4 = alloca ptr, align 8
  store ptr %0, ptr %3, align 8
  store ptr %1, ptr %4, align 8
  %5 = load ptr, ptr %3, align 8
  %6 = load ptr, ptr %4, align 8
  %7 = call noundef zeroext i1 @_ZN5cmsys11SystemTools11ComparePathERKNSt7__cxx1112basic_stringIcSt11char_traitsIcESaIcEEES8_(ptr noundef nonnull align 8 dereferenceable(32) %5, ptr noundef nonnull align 8 dereferenceable(32) %6)
  br i1 %7, label %12, label %8

8:                                                ; preds = %2
  %9 = load ptr, ptr %3, align 8
  %10 = load ptr, ptr %4, align 8
  %11 = call noundef zeroext i1 @_ZN5cmsys11SystemTools14IsSubDirectoryERKNSt7__cxx1112basic_stringIcSt11char_traitsIcESaIcEEES8_(ptr noundef nonnull align 8 dereferenceable(32) %9, ptr noundef nonnull align 8 dereferenceable(32) %10)
  br label %12

12:                                               ; preds = %8, %2
  %13 = phi i1 [ true, %2 ], [ %11, %8 ]
  ret i1 %13
}

; Function Attrs: mustprogress uwtable
define dso_local void @_ZNK17cmOutputConverter15MaybeRelativeToERKNSt7__cxx1112basic_stringIcSt11char_traitsIcESaIcEEES7_(ptr dead_on_unwind noalias writable sret(%"class.std::__cxx11::basic_string") align 8 %0, ptr noundef nonnull align 8 dereferenceable(108) %1, ptr noundef nonnull align 8 dereferenceable(32) %2, ptr noundef nonnull align 8 dereferenceable(32) %3) #4 align 2 {
  %5 = alloca ptr, align 8
  %6 = alloca ptr, align 8
  %7 = alloca ptr, align 8
  %8 = alloca ptr, align 8
  %9 = alloca i8, align 1
  %10 = alloca i8, align 1
  %11 = alloca i8, align 1
  %12 = alloca i8, align 1
  %13 = alloca i8, align 1
  %14 = alloca i8, align 1
  store ptr %0, ptr %5, align 8
  store ptr %1, ptr %6, align 8
  store ptr %2, ptr %7, align 8
  store ptr %3, ptr %8, align 8
  %15 = load ptr, ptr %6, align 8
  %16 = load ptr, ptr %7, align 8
  %17 = getelementptr inbounds %class.cmOutputConverter, ptr %15, i32 0, i32 5
  %18 = call noundef zeroext i1 @_ZN12_GLOBAL__N_114PathEqOrSubDirERKNSt7__cxx1112basic_stringIcSt11char_traitsIcESaIcEEES7_(ptr noundef nonnull align 8 dereferenceable(32) %16, ptr noundef nonnull align 8 dereferenceable(32) %17)
  %19 = zext i1 %18 to i8
  store i8 %19, ptr %9, align 1
  %20 = load ptr, ptr %8, align 8
  %21 = getelementptr inbounds %class.cmOutputConverter, ptr %15, i32 0, i32 5
  %22 = call noundef zeroext i1 @_ZN12_GLOBAL__N_114PathEqOrSubDirERKNSt7__cxx1112basic_stringIcSt11char_traitsIcESaIcEEES7_(ptr noundef nonnull align 8 dereferenceable(32) %20, ptr noundef nonnull align 8 dereferenceable(32) %21)
  %23 = zext i1 %22 to i8
  store i8 %23, ptr %10, align 1
  %24 = load ptr, ptr %7, align 8
  %25 = getelementptr inbounds %class.cmOutputConverter, ptr %15, i32 0, i32 4
  %26 = call noundef zeroext i1 @_ZN12_GLOBAL__N_114PathEqOrSubDirERKNSt7__cxx1112basic_stringIcSt11char_traitsIcESaIcEEES7_(ptr noundef nonnull align 8 dereferenceable(32) %24, ptr noundef nonnull align 8 dereferenceable(32) %25)
  %27 = zext i1 %26 to i8
  store i8 %27, ptr %11, align 1
  %28 = load ptr, ptr %8, align 8
  %29 = getelementptr inbounds %class.cmOutputConverter, ptr %15, i32 0, i32 4
  %30 = call noundef zeroext i1 @_ZN12_GLOBAL__N_114PathEqOrSubDirERKNSt7__cxx1112basic_stringIcSt11char_traitsIcESaIcEEES7_(ptr noundef nonnull align 8 dereferenceable(32) %28, ptr noundef nonnull align 8 dereferenceable(32) %29)
  %31 = zext i1 %30 to i8
  store i8 %31, ptr %12, align 1
  %32 = getelementptr inbounds %class.cmOutputConverter, ptr %15, i32 0, i32 6
  %33 = load i32, ptr %32, align 8
  switch i32 %33, label %74 [
    i32 0, label %34
    i32 1, label %35
    i32 2, label %54
    i32 3, label %73
  ]

34:                                               ; preds = %4
  br label %74

35:                                               ; preds = %4
  %36 = load i8, ptr %11, align 1
  %37 = trunc i8 %36 to i1
  br i1 %37, label %38, label %42

38:                                               ; preds = %35
  %39 = load i8, ptr %9, align 1
  %40 = trunc i8 %39 to i1
  %41 = xor i1 %40, true
  br label %42

42:                                               ; preds = %38, %35
  %43 = phi i1 [ false, %35 ], [ %41, %38 ]
  %44 = zext i1 %43 to i8
  store i8 %44, ptr %11, align 1
  %45 = load i8, ptr %12, align 1
  %46 = trunc i8 %45 to i1
  br i1 %46, label %47, label %51

47:                                               ; preds = %42
  %48 = load i8, ptr %10, align 1
  %49 = trunc i8 %48 to i1
  %50 = xor i1 %49, true
  br label %51

51:                                               ; preds = %47, %42
  %52 = phi i1 [ false, %42 ], [ %50, %47 ]
  %53 = zext i1 %52 to i8
  store i8 %53, ptr %12, align 1
  br label %74

54:                                               ; preds = %4
  %55 = load i8, ptr %9, align 1
  %56 = trunc i8 %55 to i1
  br i1 %56, label %57, label %61

57:                                               ; preds = %54
  %58 = load i8, ptr %11, align 1
  %59 = trunc i8 %58 to i1
  %60 = xor i1 %59, true
  br label %61

61:                                               ; preds = %57, %54
  %62 = phi i1 [ false, %54 ], [ %60, %57 ]
  %63 = zext i1 %62 to i8
  store i8 %63, ptr %9, align 1
  %64 = load i8, ptr %10, align 1
  %65 = trunc i8 %64 to i1
  br i1 %65, label %66, label %70

66:                                               ; preds = %61
  %67 = load i8, ptr %12, align 1
  %68 = trunc i8 %67 to i1
  %69 = xor i1 %68, true
  br label %70

70:                                               ; preds = %66, %61
  %71 = phi i1 [ false, %61 ], [ %69, %66 ]
  %72 = zext i1 %71 to i8
  store i8 %72, ptr %10, align 1
  br label %74

73:                                               ; preds = %4
  br label %74

74:                                               ; preds = %73, %70, %51, %34, %4
  %75 = load i8, ptr %9, align 1
  %76 = trunc i8 %75 to i1
  br i1 %76, label %77, label %80

77:                                               ; preds = %74
  %78 = load i8, ptr %10, align 1
  %79 = trunc i8 %78 to i1
  br label %80

80:                                               ; preds = %77, %74
  %81 = phi i1 [ false, %74 ], [ %79, %77 ]
  %82 = zext i1 %81 to i8
  store i8 %82, ptr %13, align 1
  %83 = load i8, ptr %11, align 1
  %84 = trunc i8 %83 to i1
  br i1 %84, label %85, label %88

85:                                               ; preds = %80
  %86 = load i8, ptr %12, align 1
  %87 = trunc i8 %86 to i1
  br label %88

88:                                               ; preds = %85, %80
  %89 = phi i1 [ false, %80 ], [ %87, %85 ]
  %90 = zext i1 %89 to i8
  store i8 %90, ptr %14, align 1
  %91 = load i8, ptr %13, align 1
  %92 = trunc i8 %91 to i1
  br i1 %92, label %96, label %93

93:                                               ; preds = %88
  %94 = load i8, ptr %14, align 1
  %95 = trunc i8 %94 to i1
  br i1 %95, label %96, label %99

96:                                               ; preds = %93, %88
  %97 = load ptr, ptr %7, align 8
  %98 = load ptr, ptr %8, align 8
  call void @_ZN13cmSystemTools19ForceToRelativePathERKNSt7__cxx1112basic_stringIcSt11char_traitsIcESaIcEEES7_(ptr dead_on_unwind writable sret(%"class.std::__cxx11::basic_string") align 8 %0, ptr noundef nonnull align 8 dereferenceable(32) %97, ptr noundef nonnull align 8 dereferenceable(32) %98)
  br label %101

99:                                               ; preds = %93
  %100 = load ptr, ptr %8, align 8
  call void @_ZNSt7__cxx1112basic_stringIcSt11char_traitsIcESaIcEEC1ERKS4_(ptr noundef nonnull align 8 dereferenceable(32) %0, ptr noundef nonnull align 8 dereferenceable(32) %100)
  br label %101

101:                                              ; preds = %99, %96
  ret void
}