; Function Attrs: mustprogress uwtable
define dso_local void @_ZNK17cmOutputConverter15MaybeRelativeToERKNSt7__cxx1112basic_stringIcSt11char_traitsIcESaIcEEES7_(ptr dead_on_unwind noalias writable sret(%"class.std::__cxx11::basic_string") align 8 %0, ptr noundef nonnull align 8 dereferenceable(108) %1, ptr noundef nonnull align 8 dereferenceable(32) %2, ptr noundef nonnull align 8 dereferenceable(32) %3) local_unnamed_addr #3 align 2 {
  %5 = getelementptr inbounds i8, ptr %1, i64 72
  %6 = tail call noundef zeroext i1 @_ZN5cmsys11SystemTools11ComparePathERKNSt7__cxx1112basic_stringIcSt11char_traitsIcESaIcEEES8_(ptr noundef nonnull align 8 dereferenceable(32) %2, ptr noundef nonnull align 8 dereferenceable(32) %5)
  br i1 %6, label %_ZN12_GLOBAL__N_114PathEqOrSubDirERKNSt7__cxx1112basic_stringIcSt11char_traitsIcESaIcEEES7_.exit, label %7

7:                                                ; preds = %4
  %8 = tail call noundef zeroext i1 @_ZN5cmsys11SystemTools14IsSubDirectoryERKNSt7__cxx1112basic_stringIcSt11char_traitsIcESaIcEEES8_(ptr noundef nonnull align 8 dereferenceable(32) %2, ptr noundef nonnull align 8 dereferenceable(32) %5)
  br label %_ZN12_GLOBAL__N_114PathEqOrSubDirERKNSt7__cxx1112basic_stringIcSt11char_traitsIcESaIcEEES7_.exit

_ZN12_GLOBAL__N_114PathEqOrSubDirERKNSt7__cxx1112basic_stringIcSt11char_traitsIcESaIcEEES7_.exit: ; preds = %4, %7
  %9 = phi i1 [ true, %4 ], [ %8, %7 ]
  %10 = tail call noundef zeroext i1 @_ZN5cmsys11SystemTools11ComparePathERKNSt7__cxx1112basic_stringIcSt11char_traitsIcESaIcEEES8_(ptr noundef nonnull align 8 dereferenceable(32) %3, ptr noundef nonnull align 8 dereferenceable(32) %5)
  br i1 %10, label %_ZN12_GLOBAL__N_114PathEqOrSubDirERKNSt7__cxx1112basic_stringIcSt11char_traitsIcESaIcEEES7_.exit24, label %11

11:                                               ; preds = %_ZN12_GLOBAL__N_114PathEqOrSubDirERKNSt7__cxx1112basic_stringIcSt11char_traitsIcESaIcEEES7_.exit
  %12 = tail call noundef zeroext i1 @_ZN5cmsys11SystemTools14IsSubDirectoryERKNSt7__cxx1112basic_stringIcSt11char_traitsIcESaIcEEES8_(ptr noundef nonnull align 8 dereferenceable(32) %3, ptr noundef nonnull align 8 dereferenceable(32) %5)
  br label %_ZN12_GLOBAL__N_114PathEqOrSubDirERKNSt7__cxx1112basic_stringIcSt11char_traitsIcESaIcEEES7_.exit24

_ZN12_GLOBAL__N_114PathEqOrSubDirERKNSt7__cxx1112basic_stringIcSt11char_traitsIcESaIcEEES7_.exit24: ; preds = %_ZN12_GLOBAL__N_114PathEqOrSubDirERKNSt7__cxx1112basic_stringIcSt11char_traitsIcESaIcEEES7_.exit, %11
  %13 = phi i1 [ true, %_ZN12_GLOBAL__N_114PathEqOrSubDirERKNSt7__cxx1112basic_stringIcSt11char_traitsIcESaIcEEES7_.exit ], [ %12, %11 ]
  %14 = getelementptr inbounds i8, ptr %1, i64 40
  %15 = tail call noundef zeroext i1 @_ZN5cmsys11SystemTools11ComparePathERKNSt7__cxx1112basic_stringIcSt11char_traitsIcESaIcEEES8_(ptr noundef nonnull align 8 dereferenceable(32) %2, ptr noundef nonnull align 8 dereferenceable(32) %14)
  br i1 %15, label %_ZN12_GLOBAL__N_114PathEqOrSubDirERKNSt7__cxx1112basic_stringIcSt11char_traitsIcESaIcEEES7_.exit25, label %16

16:                                               ; preds = %_ZN12_GLOBAL__N_114PathEqOrSubDirERKNSt7__cxx1112basic_stringIcSt11char_traitsIcESaIcEEES7_.exit24
  %17 = tail call noundef zeroext i1 @_ZN5cmsys11SystemTools14IsSubDirectoryERKNSt7__cxx1112basic_stringIcSt11char_traitsIcESaIcEEES8_(ptr noundef nonnull align 8 dereferenceable(32) %2, ptr noundef nonnull align 8 dereferenceable(32) %14)
  br label %_ZN12_GLOBAL__N_114PathEqOrSubDirERKNSt7__cxx1112basic_stringIcSt11char_traitsIcESaIcEEES7_.exit25

_ZN12_GLOBAL__N_114PathEqOrSubDirERKNSt7__cxx1112basic_stringIcSt11char_traitsIcESaIcEEES7_.exit25: ; preds = %_ZN12_GLOBAL__N_114PathEqOrSubDirERKNSt7__cxx1112basic_stringIcSt11char_traitsIcESaIcEEES7_.exit24, %16
  %18 = phi i1 [ true, %_ZN12_GLOBAL__N_114PathEqOrSubDirERKNSt7__cxx1112basic_stringIcSt11char_traitsIcESaIcEEES7_.exit24 ], [ %17, %16 ]
  %19 = tail call noundef zeroext i1 @_ZN5cmsys11SystemTools11ComparePathERKNSt7__cxx1112basic_stringIcSt11char_traitsIcESaIcEEES8_(ptr noundef nonnull align 8 dereferenceable(32) %3, ptr noundef nonnull align 8 dereferenceable(32) %14)
  br i1 %19, label %_ZN12_GLOBAL__N_114PathEqOrSubDirERKNSt7__cxx1112basic_stringIcSt11char_traitsIcESaIcEEES7_.exit26, label %20

20:                                               ; preds = %_ZN12_GLOBAL__N_114PathEqOrSubDirERKNSt7__cxx1112basic_stringIcSt11char_traitsIcESaIcEEES7_.exit25
  %21 = tail call noundef zeroext i1 @_ZN5cmsys11SystemTools14IsSubDirectoryERKNSt7__cxx1112basic_stringIcSt11char_traitsIcESaIcEEES8_(ptr noundef nonnull align 8 dereferenceable(32) %3, ptr noundef nonnull align 8 dereferenceable(32) %14)
  br label %_ZN12_GLOBAL__N_114PathEqOrSubDirERKNSt7__cxx1112basic_stringIcSt11char_traitsIcESaIcEEES7_.exit26

_ZN12_GLOBAL__N_114PathEqOrSubDirERKNSt7__cxx1112basic_stringIcSt11char_traitsIcESaIcEEES7_.exit26: ; preds = %_ZN12_GLOBAL__N_114PathEqOrSubDirERKNSt7__cxx1112basic_stringIcSt11char_traitsIcESaIcEEES7_.exit25, %20
  %22 = phi i1 [ true, %_ZN12_GLOBAL__N_114PathEqOrSubDirERKNSt7__cxx1112basic_stringIcSt11char_traitsIcESaIcEEES7_.exit25 ], [ %21, %20 ]
  %23 = getelementptr inbounds i8, ptr %1, i64 104
  %24 = load i32, ptr %23, align 8
  switch i32 %24, label %35 [
    i32 2, label %30
    i32 1, label %25
  ]

25:                                               ; preds = %_ZN12_GLOBAL__N_114PathEqOrSubDirERKNSt7__cxx1112basic_stringIcSt11char_traitsIcESaIcEEES7_.exit26
  %26 = xor i1 %9, true
  %27 = and i1 %18, %26
  %28 = xor i1 %13, true
  %29 = and i1 %22, %28
  br label %35

30:                                               ; preds = %_ZN12_GLOBAL__N_114PathEqOrSubDirERKNSt7__cxx1112basic_stringIcSt11char_traitsIcESaIcEEES7_.exit26
  %31 = xor i1 %18, true
  %32 = and i1 %9, %31
  %33 = xor i1 %22, true
  %34 = and i1 %13, %33
  br label %35

35:                                               ; preds = %30, %25, %_ZN12_GLOBAL__N_114PathEqOrSubDirERKNSt7__cxx1112basic_stringIcSt11char_traitsIcESaIcEEES7_.exit26
  %.023.in = phi i1 [ %18, %_ZN12_GLOBAL__N_114PathEqOrSubDirERKNSt7__cxx1112basic_stringIcSt11char_traitsIcESaIcEEES7_.exit26 ], [ %27, %25 ], [ %18, %30 ]
  %.022.in = phi i1 [ %22, %_ZN12_GLOBAL__N_114PathEqOrSubDirERKNSt7__cxx1112basic_stringIcSt11char_traitsIcESaIcEEES7_.exit26 ], [ %29, %25 ], [ %22, %30 ]
  %.021.in = phi i1 [ %13, %_ZN12_GLOBAL__N_114PathEqOrSubDirERKNSt7__cxx1112basic_stringIcSt11char_traitsIcESaIcEEES7_.exit26 ], [ %13, %25 ], [ %34, %30 ]
  %.0.in = phi i1 [ %9, %_ZN12_GLOBAL__N_114PathEqOrSubDirERKNSt7__cxx1112basic_stringIcSt11char_traitsIcESaIcEEES7_.exit26 ], [ %9, %25 ], [ %32, %30 ]
  %36 = and i1 %.021.in, %.0.in
  %37 = and i1 %.023.in, %.022.in
  %or.cond = or i1 %37, %36
  br i1 %or.cond, label %38, label %39

38:                                               ; preds = %35
  tail call void @_ZN13cmSystemTools19ForceToRelativePathERKNSt7__cxx1112basic_stringIcSt11char_traitsIcESaIcEEES7_(ptr dead_on_unwind writable sret(%"class.std::__cxx11::basic_string") align 8 %0, ptr noundef nonnull align 8 dereferenceable(32) %2, ptr noundef nonnull align 8 dereferenceable(32) %3)
  br label %40

39:                                               ; preds = %35
  tail call void @_ZNSt7__cxx1112basic_stringIcSt11char_traitsIcESaIcEEC1ERKS4_(ptr noundef nonnull align 8 dereferenceable(32) %0, ptr noundef nonnull align 8 dereferenceable(32) %3)
  br label %40

40:                                               ; preds = %39, %38
  ret void
}